target datalayout = "e-m:e-p270:32:32-p271:32:32-p272:64:64-i64:64-i128:128-f80:128-n8:16:32:64-S128"
target triple = "x86_64-unknown-linux-gnu"

%struct.TypeInfo = type { ptr, ptr, i64, i64, ptr, ptr, ptr, i8, i64, ptr, ptr, ptr, ptr }
%struct.UHCIInfo = type { ptr, i16, i16, i8, i8, ptr, i8, i8 }

@__const.uhci_register_types.uhci_type_info = private unnamed_addr constant %struct.TypeInfo { ptr null, ptr @.str.2, i64 0, i64 0, ptr null, ptr null, ptr null, i8 0, i64 0, ptr @uhci_data_class_init, ptr null, ptr null, ptr null }, align 8
@uhci_pci_type_info = internal constant %struct.TypeInfo { ptr @.str.2, ptr @.str.69, i64 3344, i64 0, ptr null, ptr null, ptr null, i8 1, i64 264, ptr @uhci_class_init, ptr null, ptr null, ptr @.compoundliteral }, align 8

; Function Attrs: nounwind sspstrong uwtable
define internal void @uhci_register_types() #0 {
entry:
  %uhci_type_info = alloca %struct.TypeInfo, align 8
  %i = alloca i32, align 4
  call void @llvm.memcpy.p0.p0.i64(ptr align 8 %uhci_type_info, ptr align 8 @__const.uhci_register_types.uhci_type_info, i64 104, i1 false)
  %call = call ptr @type_register_static(ptr noundef @uhci_pci_type_info)
  store i32 0, ptr %i, align 4
  br label %for.cond

for.cond:                                         ; preds = %for.inc, %entry
  %0 = load i32, ptr %i, align 4
  %conv = sext i32 %0 to i64
  %cmp = icmp ult i64 %conv, 8
  br i1 %cmp, label %for.body, label %for.end

for.body:                                         ; preds = %for.cond
  %1 = load i32, ptr %i, align 4
  %idxprom = sext i32 %1 to i64
  %arrayidx = getelementptr [8 x %struct.UHCIInfo], ptr @uhci_info, i64 0, i64 %idxprom
  %name = getelementptr inbounds %struct.UHCIInfo, ptr %arrayidx, i32 0, i32 0
  %2 = load ptr, ptr %name, align 16
  %name2 = getelementptr inbounds %struct.TypeInfo, ptr %uhci_type_info, i32 0, i32 0
  store ptr %2, ptr %name2, align 8
  %3 = load i32, ptr %i, align 4
  %idx.ext = sext i32 %3 to i64
  %add.ptr = getelementptr %struct.UHCIInfo, ptr @uhci_info, i64 %idx.ext
  %class_data = getelementptr inbounds %struct.TypeInfo, ptr %uhci_type_info, i32 0, i32 11
  store ptr %add.ptr, ptr %class_data, align 8
  %call3 = call ptr @type_register(ptr noundef %uhci_type_info)
  br label %for.inc

for.inc:                                          ; preds = %for.body
  %4 = load i32, ptr %i, align 4
  %inc = add i32 %4, 1
  store i32 %inc, ptr %i, align 4
  br label %for.cond, !llvm.loop !9

for.end:                                          ; preds = %for.cond
  ret void
}